(lp0
VMMM\u000a
p1
aVABT\u000a
p2
aVABBV\u000a
p3
aVABMD\u000a
p4
aVACN\u000a
p5
aVATVI\u000a
p6
aVADBE\u000a
p7
aVAMD\u000a
p8
aVAAP\u000a
p9
aVAES\u000a
p10
aVAMG\u000a
p11
aVAFL\u000a
p12
aVA\u000a
p13
aVAPD\u000a
p14
aVAKAM\u000a
p15
aVALK\u000a
p16
aVALB\u000a
p17
aVARE\u000a
p18
aVALXN\u000a
p19
aVALGN\u000a
p20
aVALLE\u000a
p21
aVAGN\u000a
p22
aVADS\u000a
p23
aVLNT\u000a
p24
aVALL\u000a
p25
aVGOOGL\u000a
p26
aVGOOG\u000a
p27
aVMO\u000a
p28
aVAMZN\u000a
p29
aVAMCR\u000a
p30
aVAEE\u000a
p31
aVAAL\u000a
p32
aVAEP\u000a
p33
aVAXP\u000a
p34
aVAIG\u000a
p35
aVAMT\u000a
p36
aVAWK\u000a
p37
aVAMP\u000a
p38
aVABC\u000a
p39
aVAME\u000a
p40
aVAMGN\u000a
p41
aVAPH\u000a
p42
aVAPC\u000a
p43
aVADI\u000a
p44
aVANSS\u000a
p45
aVANTM\u000a
p46
aVAON\u000a
p47
aVAOS\u000a
p48
aVAPA\u000a
p49
aVAIV\u000a
p50
aVAAPL\u000a
p51
aVAMAT\u000a
p52
aVAPTV\u000a
p53
aVADM\u000a
p54
aVARNC\u000a
p55
aVANET\u000a
p56
aVAJG\u000a
p57
aVAIZ\u000a
p58
aVATO\u000a
p59
aVT\u000a
p60
aVADSK\u000a
p61
aVADP\u000a
p62
aVAZO\u000a
p63
aVAVB\u000a
p64
aVAVY\u000a
p65
aVBHGE\u000a
p66
aVBLL\u000a
p67
aVBAC\u000a
p68
aVBK\u000a
p69
aVBAX\u000a
p70
aVBBT\u000a
p71
aVBDX\u000a
p72
aVBRK.B\u000a
p73
aVBBY\u000a
p74
aVBIIB\u000a
p75
aVBLK\u000a
p76
aVHRB\u000a
p77
aVBA\u000a
p78
aVBKNG\u000a
p79
aVBWA\u000a
p80
aVBXP\u000a
p81
aVBSX\u000a
p82
aVBMY\u000a
p83
aVAVGO\u000a
p84
aVBR\u000a
p85
aVBF.B\u000a
p86
aVCHRW\u000a
p87
aVCOG\u000a
p88
aVCDNS\u000a
p89
aVCPB\u000a
p90
aVCOF\u000a
p91
aVCPRI\u000a
p92
aVCAH\u000a
p93
aVKMX\u000a
p94
aVCCL\u000a
p95
aVCAT\u000a
p96
aVCBOE\u000a
p97
aVCBRE\u000a
p98
aVCBS\u000a
p99
aVCE\u000a
p100
aVCELG\u000a
p101
aVCNC\u000a
p102
aVCNP\u000a
p103
aVCTL\u000a
p104
aVCERN\u000a
p105
aVCF\u000a
p106
aVSCHW\u000a
p107
aVCHTR\u000a
p108
aVCVX\u000a
p109
aVCMG\u000a
p110
aVCB\u000a
p111
aVCHD\u000a
p112
aVCI\u000a
p113
aVXEC\u000a
p114
aVCINF\u000a
p115
aVCTAS\u000a
p116
aVCSCO\u000a
p117
aVC\u000a
p118
aVCFG\u000a
p119
aVCTXS\u000a
p120
aVCLX\u000a
p121
aVCME\u000a
p122
aVCMS\u000a
p123
aVKO\u000a
p124
aVCTSH\u000a
p125
aVCL\u000a
p126
aVCMCSA\u000a
p127
aVCMA\u000a
p128
aVCAG\u000a
p129
aVCXO\u000a
p130
aVCOP\u000a
p131
aVED\u000a
p132
aVSTZ\u000a
p133
aVCOO\u000a
p134
aVCPRT\u000a
p135
aVGLW\u000a
p136
aVCTVA\u000a
p137
aVCOST\u000a
p138
aVCOTY\u000a
p139
aVCCI\u000a
p140
aVCSX\u000a
p141
aVCMI\u000a
p142
aVCVS\u000a
p143
aVDHI\u000a
p144
aVDHR\u000a
p145
aVDRI\u000a
p146
aVDVA\u000a
p147
aVDE\u000a
p148
aVDAL\u000a
p149
aVXRAY\u000a
p150
aVDVN\u000a
p151
aVFANG\u000a
p152
aVDLR\u000a
p153
aVDFS\u000a
p154
aVDISCA\u000a
p155
aVDISCK\u000a
p156
aVDISH\u000a
p157
aVDG\u000a
p158
aVDLTR\u000a
p159
aVD\u000a
p160
aVDOV\u000a
p161
aVDOW\u000a
p162
aVDTE\u000a
p163
aVDUK\u000a
p164
aVDRE\u000a
p165
aVDD\u000a
p166
aVDXC\u000a
p167
aVETFC\u000a
p168
aVEMN\u000a
p169
aVETN\u000a
p170
aVEBAY\u000a
p171
aVECL\u000a
p172
aVEIX\u000a
p173
aVEW\u000a
p174
aVEA\u000a
p175
aVEMR\u000a
p176
aVETR\u000a
p177
aVEOG\u000a
p178
aVEFX\u000a
p179
aVEQIX\u000a
p180
aVEQR\u000a
p181
aVESS\u000a
p182
aVEL\u000a
p183
aVEVRG\u000a
p184
aVES\u000a
p185
aVRE\u000a
p186
aVEXC\u000a
p187
aVEXPE\u000a
p188
aVEXPD\u000a
p189
aVEXR\u000a
p190
aVXOM\u000a
p191
aVFFIV\u000a
p192
aVFB\u000a
p193
aVFAST\u000a
p194
aVFRT\u000a
p195
aVFDX\u000a
p196
aVFIS\u000a
p197
aVFITB\u000a
p198
aVFE\u000a
p199
aVFRC\u000a
p200
aVFISV\u000a
p201
aVFLT\u000a
p202
aVFLIR\u000a
p203
aVFLS\u000a
p204
aVFMC\u000a
p205
aVFL\u000a
p206
aVF\u000a
p207
aVFTNT\u000a
p208
aVFTV\u000a
p209
aVFBHS\u000a
p210
aVFOXA\u000a
p211
aVFOX\u000a
p212
aVBEN\u000a
p213
aVFCX\u000a
p214
aVGPS\u000a
p215
aVGRMN\u000a
p216
aVIT\u000a
p217
aVGD\u000a
p218
aVGE\u000a
p219
aVGIS\u000a
p220
aVGM\u000a
p221
aVGPC\u000a
p222
aVGILD\u000a
p223
aVGPN\u000a
p224
aVGS\u000a
p225
aVGWW\u000a
p226
aVHAL\u000a
p227
aVHBI\u000a
p228
aVHOG\u000a
p229
aVHIG\u000a
p230
aVHAS\u000a
p231
aVHCA\u000a
p232
aVHCP\u000a
p233
aVHP\u000a
p234
aVHSIC\u000a
p235
aVHSY\u000a
p236
aVHES\u000a
p237
aVHPE\u000a
p238
aVHLT\u000a
p239
aVHFC\u000a
p240
aVHOLX\u000a
p241
aVHD\u000a
p242
aVHON\u000a
p243
aVHRL\u000a
p244
aVHST\u000a
p245
aVHPQ\u000a
p246
aVHUM\u000a
p247
aVHBAN\u000a
p248
aVHII\u000a
p249
aVIDXX\u000a
p250
aVINFO\u000a
p251
aVITW\u000a
p252
aVILMN\u000a
p253
aVIR\u000a
p254
aVINTC\u000a
p255
aVICE\u000a
p256
aVIBM\u000a
p257
aVINCY\u000a
p258
aVIP\u000a
p259
aVIPG\u000a
p260
aVIFF\u000a
p261
aVINTU\u000a
p262
aVISRG\u000a
p263
aVIVZ\u000a
p264
aVIPGP\u000a
p265
aVIQV\u000a
p266
aVIRM\u000a
p267
aVJKHY\u000a
p268
aVJEC\u000a
p269
aVJBHT\u000a
p270
aVJEF\u000a
p271
aVSJM\u000a
p272
aVJNJ\u000a
p273
aVJCI\u000a
p274
aVJPM\u000a
p275
aVJNPR\u000a
p276
aVKSU\u000a
p277
aVK\u000a
p278
aVKEY\u000a
p279
aVKEYS\u000a
p280
aVKMB\u000a
p281
aVKIM\u000a
p282
aVKMI\u000a
p283
aVKLAC\u000a
p284
aVKSS\u000a
p285
aVKHC\u000a
p286
aVKR\u000a
p287
aVLB\u000a
p288
aVLHX\u000a
p289
aVLH\u000a
p290
aVLRCX\u000a
p291
aVLW\u000a
p292
aVLEG\u000a
p293
aVLEN\u000a
p294
aVLLY\u000a
p295
aVLNC\u000a
p296
aVLIN\u000a
p297
aVLKQ\u000a
p298
aVLMT\u000a
p299
aVL\u000a
p300
aVLOW\u000a
p301
aVLYB\u000a
p302
aVMTB\u000a
p303
aVMAC\u000a
p304
aVM\u000a
p305
aVMRO\u000a
p306
aVMPC\u000a
p307
aVMKTX\u000a
p308
aVMAR\u000a
p309
aVMMC\u000a
p310
aVMLM\u000a
p311
aVMAS\u000a
p312
aVMA\u000a
p313
aVMKC\u000a
p314
aVMXIM\u000a
p315
aVMCD\u000a
p316
aVMCK\u000a
p317
aVMDT\u000a
p318
aVMRK\u000a
p319
aVMET\u000a
p320
aVMTD\u000a
p321
aVMGM\u000a
p322
aVMCHP\u000a
p323
aVMU\u000a
p324
aVMSFT\u000a
p325
aVMAA\u000a
p326
aVMHK\u000a
p327
aVTAP\u000a
p328
aVMDLZ\u000a
p329
aVMNST\u000a
p330
aVMCO\u000a
p331
aVMS\u000a
p332
aVMOS\u000a
p333
aVMSI\u000a
p334
aVMSCI\u000a
p335
aVMYL\u000a
p336
aVNDAQ\u000a
p337
aVNOV\u000a
p338
aVNKTR\u000a
p339
aVNTAP\u000a
p340
aVNFLX\u000a
p341
aVNWL\u000a
p342
aVNEM\u000a
p343
aVNWSA\u000a
p344
aVNWS\u000a
p345
aVNEE\u000a
p346
aVNLSN\u000a
p347
aVNKE\u000a
p348
aVNI\u000a
p349
aVNBL\u000a
p350
aVJWN\u000a
p351
aVNSC\u000a
p352
aVNTRS\u000a
p353
aVNOC\u000a
p354
aVNCLH\u000a
p355
aVNRG\u000a
p356
aVNUE\u000a
p357
aVNVDA\u000a
p358
aVORLY\u000a
p359
aVOXY\u000a
p360
aVOMC\u000a
p361
aVOKE\u000a
p362
aVORCL\u000a
p363
aVPCAR\u000a
p364
aVPKG\u000a
p365
aVPH\u000a
p366
aVPAYX\u000a
p367
aVPYPL\u000a
p368
aVPNR\u000a
p369
aVPBCT\u000a
p370
aVPEP\u000a
p371
aVPKI\u000a
p372
aVPRGO\u000a
p373
aVPFE\u000a
p374
aVPM\u000a
p375
aVPSX\u000a
p376
aVPNW\u000a
p377
aVPXD\u000a
p378
aVPNC\u000a
p379
aVPPG\u000a
p380
aVPPL\u000a
p381
aVPFG\u000a
p382
aVPG\u000a
p383
aVPGR\u000a
p384
aVPLD\u000a
p385
aVPRU\u000a
p386
aVPEG\u000a
p387
aVPSA\u000a
p388
aVPHM\u000a
p389
aVPVH\u000a
p390
aVQRVO\u000a
p391
aVPWR\u000a
p392
aVQCOM\u000a
p393
aVDGX\u000a
p394
aVRL\u000a
p395
aVRJF\u000a
p396
aVRTN\u000a
p397
aVO\u000a
p398
aVREG\u000a
p399
aVREGN\u000a
p400
aVRF\u000a
p401
aVRSG\u000a
p402
aVRMD\u000a
p403
aVRHI\u000a
p404
aVROK\u000a
p405
aVROL\u000a
p406
aVROP\u000a
p407
aVROST\u000a
p408
aVRCL\u000a
p409
aVCRM\u000a
p410
aVSBAC\u000a
p411
aVSLB\u000a
p412
aVSTX\u000a
p413
aVSEE\u000a
p414
aVSRE\u000a
p415
aVSHW\u000a
p416
aVSPG\u000a
p417
aVSWKS\u000a
p418
aVSLG\u000a
p419
aVSNA\u000a
p420
aVSO\u000a
p421
aVLUV\u000a
p422
aVSPGI\u000a
p423
aVSWK\u000a
p424
aVSBUX\u000a
p425
aVSTT\u000a
p426
aVSYK\u000a
p427
aVSTI\u000a
p428
aVSIVB\u000a
p429
aVSYMC\u000a
p430
aVSYF\u000a
p431
aVSNPS\u000a
p432
aVSYY\u000a
p433
aVTMUS\u000a
p434
aVTROW\u000a
p435
aVTTWO\u000a
p436
aVTPR\u000a
p437
aVTGT\u000a
p438
aVTEL\u000a
p439
aVFTI\u000a
p440
aVTFX\u000a
p441
aVTXN\u000a
p442
aVTXT\u000a
p443
aVTMO\u000a
p444
aVTIF\u000a
p445
aVTWTR\u000a
p446
aVTJX\u000a
p447
aVTMK\u000a
p448
aVTSS\u000a
p449
aVTSCO\u000a
p450
aVTDG\u000a
p451
aVTRV\u000a
p452
aVTRIP\u000a
p453
aVTSN\u000a
p454
aVUDR\u000a
p455
aVULTA\u000a
p456
aVUSB\u000a
p457
aVUAA\u000a
p458
aVUA\u000a
p459
aVUNP\u000a
p460
aVUAL\u000a
p461
aVUNH\u000a
p462
aVUPS\u000a
p463
aVURI\u000a
p464
aVUTX\u000a
p465
aVUHS\u000a
p466
aVUNM\u000a
p467
aVVFC\u000a
p468
aVVLO\u000a
p469
aVVAR\u000a
p470
aVVTR\u000a
p471
aVVRSN\u000a
p472
aVVRSK\u000a
p473
aVVZ\u000a
p474
aVVRTX\u000a
p475
aVVIAB\u000a
p476
aVV\u000a
p477
aVVNO\u000a
p478
aVVMC\u000a
p479
aVWAB\u000a
p480
aVWMT\u000a
p481
aVWBA\u000a
p482
aVDIS\u000a
p483
aVWM\u000a
p484
aVWAT\u000a
p485
aVWEC\u000a
p486
aVWCG\u000a
p487
aVWFC\u000a
p488
aVWELL\u000a
p489
aVWDC\u000a
p490
aVWU\u000a
p491
aVWRK\u000a
p492
aVWY\u000a
p493
aVWHR\u000a
p494
aVWMB\u000a
p495
aVWLTW\u000a
p496
aVWYNN\u000a
p497
aVXEL\u000a
p498
aVXRX\u000a
p499
aVXLNX\u000a
p500
aVXYL\u000a
p501
aVYUM\u000a
p502
aVZBH\u000a
p503
aVZION\u000a
p504
aVZTS\u000a
p505
a.